target datalayout = "e-m:e-p270:32:32-p271:32:32-p272:64:64-i64:64-i128:128-f80:128-n8:16:32:64-S128"
target triple = "x86_64-pc-linux-gnu"

%union.pthread_mutex_t = type { %struct.__pthread_mutex_s }
%struct.__pthread_mutex_s = type { i32, i32, i32, i32, i32, i16, i16, %struct.__pthread_internal_list }
%struct.__pthread_internal_list = type { ptr, ptr }

; Function Attrs: nounwind uwtable
define dso_local i32 @mutex_test() #0 {
  %1 = alloca i32, align 4
  %2 = alloca %union.pthread_mutex_t, align 8
  %3 = alloca i32, align 4
  %4 = alloca ptr, align 8
  %5 = alloca i32, align 4
  %6 = alloca ptr, align 8
  call void @llvm.lifetime.start.p0(i64 40, ptr %2) #10
  call void @llvm.lifetime.start.p0(i64 4, ptr %3) #10
  call void @llvm.lifetime.start.p0(i64 8, ptr %4) #10
  %7 = call ptr @wc_InitAndAllocMutex()
  store ptr %7, ptr %4, align 8, !tbaa !4
  br label %8

8:                                                ; preds = %0
  br label %9

9:                                                ; preds = %8
  br label %10

10:                                               ; preds = %9
  %11 = load ptr, ptr %4, align 8, !tbaa !4
  %12 = icmp eq ptr %11, null
  br i1 %12, label %13, label %25

13:                                               ; preds = %10
  %14 = call ptr @__errno_location() #12
  %15 = load i32, ptr %14, align 4, !tbaa !14
  %16 = zext i32 %15 to i64
  %17 = and i64 %16, 2047
  %18 = trunc i64 %17 to i32
  %19 = sext i32 %18 to i64
  %20 = mul nsw i64 %19, 100000
  %21 = add nsw i64 58247, %20
  %22 = add nsw i64 %21, 1073741824
  %23 = sub nsw i64 0, %22
  %24 = trunc i64 %23 to i32
  store i32 %24, ptr %1, align 4
  store i32 1, ptr %5, align 4
  br label %101

25:                                               ; preds = %10
  %26 = load ptr, ptr %4, align 8, !tbaa !4
  %27 = call i32 @wc_FreeMutex(ptr noundef %26)
  br label %28

28:                                               ; preds = %25
  call void @llvm.lifetime.start.p0(i64 8, ptr %6) #10
  %29 = load ptr, ptr %4, align 8, !tbaa !4
  store ptr %29, ptr %6, align 8, !tbaa !4
  %30 = load ptr, ptr %6, align 8, !tbaa !4
  %31 = icmp ne ptr %30, null
  br i1 %31, label %32, label %34

32:                                               ; preds = %28
  %33 = load ptr, ptr %6, align 8, !tbaa !4
  call void @wolfSSL_Free(ptr noundef %33)
  br label %34

34:                                               ; preds = %32, %28
  call void @llvm.lifetime.end.p0(i64 8, ptr %6) #10
  br label %35

35:                                               ; preds = %34
  br label %36

36:                                               ; preds = %35
  %37 = call i32 @wc_InitMutex(ptr noundef %2)
  store i32 %37, ptr %3, align 4, !tbaa !14
  %38 = load i32, ptr %3, align 4, !tbaa !14
  %39 = icmp ne i32 %38, 0
  br i1 %39, label %40, label %52

40:                                               ; preds = %36
  %41 = load i32, ptr %3, align 4, !tbaa !14
  %42 = sub nsw i32 0, %41
  %43 = zext i32 %42 to i64
  %44 = and i64 %43, 2047
  %45 = trunc i64 %44 to i32
  %46 = sext i32 %45 to i64
  %47 = mul nsw i64 %46, 100000
  %48 = add nsw i64 58256, %47
  %49 = add nsw i64 %48, 536870912
  %50 = sub nsw i64 0, %49
  %51 = trunc i64 %50 to i32
  store i32 %51, ptr %1, align 4
  store i32 1, ptr %5, align 4
  br label %101

52:                                               ; preds = %36
  %53 = call i32 @wc_LockMutex(ptr noundef %2)
  store i32 %53, ptr %3, align 4, !tbaa !14
  %54 = load i32, ptr %3, align 4, !tbaa !14
  %55 = icmp ne i32 %54, 0
  br i1 %55, label %56, label %68

56:                                               ; preds = %52
  %57 = load i32, ptr %3, align 4, !tbaa !14
  %58 = sub nsw i32 0, %57
  %59 = zext i32 %58 to i64
  %60 = and i64 %59, 2047
  %61 = trunc i64 %60 to i32
  %62 = sext i32 %61 to i64
  %63 = mul nsw i64 %62, 100000
  %64 = add nsw i64 58259, %63
  %65 = add nsw i64 %64, 536870912
  %66 = sub nsw i64 0, %65
  %67 = trunc i64 %66 to i32
  store i32 %67, ptr %1, align 4
  store i32 1, ptr %5, align 4
  br label %101

68:                                               ; preds = %52
  %69 = call i32 @wc_UnLockMutex(ptr noundef %2)
  store i32 %69, ptr %3, align 4, !tbaa !14
  %70 = load i32, ptr %3, align 4, !tbaa !14
  %71 = icmp ne i32 %70, 0
  br i1 %71, label %72, label %84

72:                                               ; preds = %68
  %73 = load i32, ptr %3, align 4, !tbaa !14
  %74 = sub nsw i32 0, %73
  %75 = zext i32 %74 to i64
  %76 = and i64 %75, 2047
  %77 = trunc i64 %76 to i32
  %78 = sext i32 %77 to i64
  %79 = mul nsw i64 %78, 100000
  %80 = add nsw i64 58269, %79
  %81 = add nsw i64 %80, 536870912
  %82 = sub nsw i64 0, %81
  %83 = trunc i64 %82 to i32
  store i32 %83, ptr %1, align 4
  store i32 1, ptr %5, align 4
  br label %101

84:                                               ; preds = %68
  %85 = call i32 @wc_FreeMutex(ptr noundef %2)
  store i32 %85, ptr %3, align 4, !tbaa !14
  %86 = load i32, ptr %3, align 4, !tbaa !14
  %87 = icmp ne i32 %86, 0
  br i1 %87, label %88, label %100

88:                                               ; preds = %84
  %89 = load i32, ptr %3, align 4, !tbaa !14
  %90 = sub nsw i32 0, %89
  %91 = zext i32 %90 to i64
  %92 = and i64 %91, 2047
  %93 = trunc i64 %92 to i32
  %94 = sext i32 %93 to i64
  %95 = mul nsw i64 %94, 100000
  %96 = add nsw i64 58272, %95
  %97 = add nsw i64 %96, 536870912
  %98 = sub nsw i64 0, %97
  %99 = trunc i64 %98 to i32
  store i32 %99, ptr %1, align 4
  store i32 1, ptr %5, align 4
  br label %101

100:                                              ; preds = %84
  store i32 0, ptr %1, align 4
  store i32 1, ptr %5, align 4
  br label %101

101:                                              ; preds = %100, %88, %72, %56, %40, %13
  call void @llvm.lifetime.end.p0(i64 8, ptr %4) #10
  call void @llvm.lifetime.end.p0(i64 4, ptr %3) #10
  call void @llvm.lifetime.end.p0(i64 40, ptr %2) #10
  %102 = load i32, ptr %1, align 4
  ret i32 %102
}