; Function Attrs: nounwind uwtable
define dso_local range(i32 -1278500071, 1) i32 @mutex_test() local_unnamed_addr #0 {
  %1 = alloca %union.pthread_mutex_t, align 8
  call void @llvm.lifetime.start.p0(i64 40, ptr nonnull %1) #19
  %2 = tail call ptr @wc_InitAndAllocMutex() #19
  %3 = icmp eq ptr %2, null
  br i1 %3, label %4, label %9

4:                                                ; preds = %0
  %5 = tail call ptr @__errno_location() #21
  %6 = load i32, ptr %5, align 4, !tbaa !22
  %7 = and i32 %6, 2047
  %narrow.neg34 = mul nsw i32 %7, -100000
  %8 = add nsw i32 %narrow.neg34, -1073800071
  br label %34

9:                                                ; preds = %0
  %10 = tail call i32 @wc_FreeMutex(ptr noundef nonnull %2) #19
  tail call void @wolfSSL_Free(ptr noundef nonnull %2) #19
  %11 = call i32 @wc_InitMutex(ptr noundef nonnull %1) #19
  %.not = icmp eq i32 %11, 0
  br i1 %.not, label %16, label %12

12:                                               ; preds = %9
  %13 = sub nsw i32 0, %11
  %14 = and i32 %13, 2047
  %narrow.neg31 = mul nsw i32 %14, -100000
  %15 = add nsw i32 %narrow.neg31, -536929168
  br label %34

16:                                               ; preds = %9
  %17 = call i32 @wc_LockMutex(ptr noundef nonnull %1) #19
  %.not18 = icmp eq i32 %17, 0
  br i1 %.not18, label %22, label %18

18:                                               ; preds = %16
  %19 = sub nsw i32 0, %17
  %20 = and i32 %19, 2047
  %narrow.neg28 = mul nsw i32 %20, -100000
  %21 = add nsw i32 %narrow.neg28, -536929171
  br label %34

22:                                               ; preds = %16
  %23 = call i32 @wc_UnLockMutex(ptr noundef nonnull %1) #19
  %.not19 = icmp eq i32 %23, 0
  br i1 %.not19, label %28, label %24

24:                                               ; preds = %22
  %25 = sub nsw i32 0, %23
  %26 = and i32 %25, 2047
  %narrow.neg25 = mul nsw i32 %26, -100000
  %27 = add nsw i32 %narrow.neg25, -536929181
  br label %34

28:                                               ; preds = %22
  %29 = call i32 @wc_FreeMutex(ptr noundef nonnull %1) #19
  %.not20 = icmp eq i32 %29, 0
  br i1 %.not20, label %34, label %30

30:                                               ; preds = %28
  %31 = sub nsw i32 0, %29
  %32 = and i32 %31, 2047
  %narrow.neg = mul nsw i32 %32, -100000
  %33 = add nsw i32 %narrow.neg, -536929184
  br label %34

34:                                               ; preds = %28, %30, %24, %18, %12, %4
  %.0 = phi i32 [ %8, %4 ], [ %15, %12 ], [ %21, %18 ], [ %27, %24 ], [ %33, %30 ], [ 0, %28 ]
  call void @llvm.lifetime.end.p0(i64 40, ptr nonnull %1) #19
  ret i32 %.0
}